; Function Attrs: mustprogress uwtable
define noundef zeroext i1 @_ZN12CFrmSettings9loadGraphEP8MdiChild(ptr noundef nonnull align 8 dereferenceable(152) %0, ptr noundef %1) local_unnamed_addr #0 align 2 personality ptr @__gxx_personality_v0 {
  %3 = alloca %class.QString, align 8
  %4 = getelementptr inbounds nuw i8, ptr %0, i64 72
  %5 = load ptr, ptr %4, align 8, !tbaa !253
  %.not = icmp eq ptr %5, null
  br i1 %.not, label %8, label %6

6:                                                ; preds = %2
  %7 = tail call i32 @agclose(ptr noundef nonnull %5)
  store ptr null, ptr %4, align 8, !tbaa !253
  br label %8

8:                                                ; preds = %6, %2
  %9 = getelementptr inbounds nuw i8, ptr %0, i64 40
  %10 = getelementptr inbounds nuw i8, ptr %0, i64 48
  %11 = load ptr, ptr %10, align 8, !tbaa !16
  %.not.i.i.i = icmp eq ptr %11, null
  br i1 %.not.i.i.i, label %_ZN7QString5clearEv.exit, label %12

12:                                               ; preds = %8
  %13 = load ptr, ptr %9, align 8, !tbaa !3
  %.not.i.i.i.i = icmp eq ptr %13, null
  tail call void @llvm.memset.p0.i64(ptr noundef nonnull align 8 dereferenceable(24) %9, i8 0, i64 24, i1 false)
  br i1 %.not.i.i.i.i, label %_ZN7QString5clearEv.exit, label %_ZN17QArrayDataPointerIDsE5derefEv.exit.i.i.i

_ZN17QArrayDataPointerIDsE5derefEv.exit.i.i.i:    ; preds = %12
  %14 = atomicrmw sub ptr %13, i32 1 seq_cst, align 4
  %.not.i.i1.i = icmp eq i32 %14, 1
  br i1 %.not.i.i1.i, label %15, label %_ZN7QString5clearEv.exit

15:                                               ; preds = %_ZN17QArrayDataPointerIDsE5derefEv.exit.i.i.i
  tail call void @_ZN10QArrayData10deallocateEPS_xx(ptr noundef nonnull %13, i64 noundef 2, i64 noundef 8) #23
  br label %_ZN7QString5clearEv.exit

_ZN7QString5clearEv.exit:                         ; preds = %8, %12, %_ZN17QArrayDataPointerIDsE5derefEv.exit.i.i.i, %15
  call void @llvm.lifetime.start.p0(i64 24, ptr nonnull %3) #23
  call void @_ZNK9QTextEdit11toPlainTextEv(ptr dead_on_unwind nonnull writable sret(%class.QString) align 8 %3, ptr noundef nonnull align 8 dereferenceable(40) %1)
  %16 = invoke noundef nonnull align 8 dereferenceable(24) ptr @_ZN7QString6appendERKS_(ptr noundef nonnull align 8 dereferenceable(24) %9, ptr noundef nonnull align 8 dereferenceable(24) %3)
          to label %17 unwind label %23

17:                                               ; preds = %_ZN7QString5clearEv.exit
  %18 = load ptr, ptr %3, align 8, !tbaa !12
  %.not.i.i.i4 = icmp eq ptr %18, null
  br i1 %.not.i.i.i4, label %_ZN7QStringD2Ev.exit, label %_ZN17QArrayDataPointerIDsE5derefEv.exit.i.i

_ZN17QArrayDataPointerIDsE5derefEv.exit.i.i:      ; preds = %17
  %19 = atomicrmw sub ptr %18, i32 1 seq_cst, align 4
  %.not.i.i = icmp eq i32 %19, 1
  br i1 %.not.i.i, label %20, label %_ZN7QStringD2Ev.exit

20:                                               ; preds = %_ZN17QArrayDataPointerIDsE5derefEv.exit.i.i
  %21 = load ptr, ptr %3, align 8, !tbaa !12
  call void @_ZN10QArrayData10deallocateEPS_xx(ptr noundef %21, i64 noundef 2, i64 noundef 8) #23
  br label %_ZN7QStringD2Ev.exit

_ZN7QStringD2Ev.exit:                             ; preds = %17, %_ZN17QArrayDataPointerIDsE5derefEv.exit.i.i, %20
  call void @llvm.lifetime.end.p0(i64 24, ptr nonnull %3) #23
  %22 = getelementptr inbounds nuw i8, ptr %0, i64 80
  store ptr %1, ptr %22, align 8, !tbaa !236
  ret i1 true

23:                                               ; preds = %_ZN7QString5clearEv.exit
  %24 = landingpad { ptr, i32 }
          cleanup
  %25 = load ptr, ptr %3, align 8, !tbaa !12
  %.not.i.i.i5 = icmp eq ptr %25, null
  br i1 %.not.i.i.i5, label %_ZN7QStringD2Ev.exit8, label %_ZN17QArrayDataPointerIDsE5derefEv.exit.i.i6

_ZN17QArrayDataPointerIDsE5derefEv.exit.i.i6:     ; preds = %23
  %26 = atomicrmw sub ptr %25, i32 1 seq_cst, align 4
  %.not.i.i7 = icmp eq i32 %26, 1
  br i1 %.not.i.i7, label %27, label %_ZN7QStringD2Ev.exit8

27:                                               ; preds = %_ZN17QArrayDataPointerIDsE5derefEv.exit.i.i6
  %28 = load ptr, ptr %3, align 8, !tbaa !12
  call void @_ZN10QArrayData10deallocateEPS_xx(ptr noundef %28, i64 noundef 2, i64 noundef 8) #23
  br label %_ZN7QStringD2Ev.exit8

_ZN7QStringD2Ev.exit8:                            ; preds = %23, %_ZN17QArrayDataPointerIDsE5derefEv.exit.i.i6, %27
  call void @llvm.lifetime.end.p0(i64 24, ptr nonnull %3) #23
  resume { ptr, i32 } %24
}